; Function Attrs: mustprogress uwtable
define void @_ZN4base18StatisticsRecorder25CreateTemporaryForTestingEv(ptr dead_on_unwind noalias writable writeonly sret(%"class.std::unique_ptr.68") align 8 captures(none) %0) local_unnamed_addr #0 align 2 personality ptr @__gxx_personality_v0 {
  %2 = tail call noalias noundef nonnull dereferenceable(32) ptr @_Znwm(i64 noundef 32) #26
  invoke void @_ZN4base18StatisticsRecorderC1Ev(ptr noundef nonnull align 8 dereferenceable(25) %2)
          to label %3 unwind label %4

3:                                                ; preds = %1
  store ptr %2, ptr %0, align 8, !tbaa !127, !alias.scope !129
  ret void

4:                                                ; preds = %1
  %5 = landingpad { ptr, i32 }
          cleanup
  tail call void @_ZdlPv(ptr noundef nonnull %2) #24
  resume { ptr, i32 } %5
}